#include <math.h>
#include <stdio.h>
#include <stdlib.h>
#include <string.h>


int main()
{
	int n,m1,k,m;
	int j;
	scanf("%d%d",&n,&k);
	for(m1=7;;m1++)
	{
		if(m1%n == k)
		{
			m = m1;
			for(j=1;j<=n;j++)
			{
				if(j<n)
				{
					m -= k;
					if(!(m%n))//??
					{
						m = m-m/n;
					}
					else
					{
						break;
					}
				}
				else
				{
					m -= k;
					if(!(m%n))
					{
						printf("%d",m1);
						return 0;
					}
				}
			}
			
		}
	}
}