; ModuleID = '54/247.c'
source_filename = "54/247.c"
target datalayout = "e-m:e-p270:32:32-p271:32:32-p272:64:64-i64:64-f80:128-n8:16:32:64-S128"
target triple = "x86_64-pc-linux-gnu"

@.str = private unnamed_addr constant [5 x i8] c"%d%d\00", align 1
@.str.1 = private unnamed_addr constant [3 x i8] c"%d\00", align 1

; Function Attrs: noinline nounwind uwtable
define dso_local i32 @main() #0 {
  %1 = alloca i32, align 4
  %2 = alloca i32, align 4
  %3 = alloca i32, align 4
  %4 = alloca i32, align 4
  %5 = alloca i32, align 4
  %6 = alloca i32, align 4
  store i32 0, i32* %1, align 4
  %7 = call i32 (i8*, ...) @__isoc99_scanf(i8* getelementptr inbounds ([5 x i8], [5 x i8]* @.str, i64 0, i64 0), i32* %2, i32* %4)
  store i32 7, i32* %3, align 4
  br label %8

8:                                                ; preds = %58, %0
  %9 = load i32, i32* %3, align 4
  %10 = load i32, i32* %2, align 4
  %11 = srem i32 %9, %10
  %12 = load i32, i32* %4, align 4
  %13 = icmp eq i32 %11, %12
  br i1 %13, label %14, label %57

14:                                               ; preds = %8
  %15 = load i32, i32* %3, align 4
  store i32 %15, i32* %5, align 4
  store i32 1, i32* %6, align 4
  br label %16

16:                                               ; preds = %53, %14
  %17 = load i32, i32* %6, align 4
  %18 = load i32, i32* %2, align 4
  %19 = icmp sle i32 %17, %18
  br i1 %19, label %20, label %56

20:                                               ; preds = %16
  %21 = load i32, i32* %6, align 4
  %22 = load i32, i32* %2, align 4
  %23 = icmp slt i32 %21, %22
  br i1 %23, label %24, label %40

24:                                               ; preds = %20
  %25 = load i32, i32* %4, align 4
  %26 = load i32, i32* %5, align 4
  %27 = sub nsw i32 %26, %25
  store i32 %27, i32* %5, align 4
  %28 = load i32, i32* %5, align 4
  %29 = load i32, i32* %2, align 4
  %30 = srem i32 %28, %29
  %31 = icmp ne i32 %30, 0
  br i1 %31, label %38, label %32

32:                                               ; preds = %24
  %33 = load i32, i32* %5, align 4
  %34 = load i32, i32* %5, align 4
  %35 = load i32, i32* %2, align 4
  %36 = sdiv i32 %34, %35
  %37 = sub nsw i32 %33, %36
  store i32 %37, i32* %5, align 4
  br label %39

38:                                               ; preds = %24
  br label %56

39:                                               ; preds = %32
  br label %52

40:                                               ; preds = %20
  %41 = load i32, i32* %4, align 4
  %42 = load i32, i32* %5, align 4
  %43 = sub nsw i32 %42, %41
  store i32 %43, i32* %5, align 4
  %44 = load i32, i32* %5, align 4
  %45 = load i32, i32* %2, align 4
  %46 = srem i32 %44, %45
  %47 = icmp ne i32 %46, 0
  br i1 %47, label %51, label %48

48:                                               ; preds = %40
  %49 = load i32, i32* %3, align 4
  %50 = call i32 (i8*, ...) @printf(i8* getelementptr inbounds ([3 x i8], [3 x i8]* @.str.1, i64 0, i64 0), i32 %49)
  ret i32 0

51:                                               ; preds = %40
  br label %52

52:                                               ; preds = %51, %39
  br label %53

53:                                               ; preds = %52
  %54 = load i32, i32* %6, align 4
  %55 = add nsw i32 %54, 1
  store i32 %55, i32* %6, align 4
  br label %16

56:                                               ; preds = %38, %16
  br label %57

57:                                               ; preds = %56, %8
  br label %58

58:                                               ; preds = %57
  %59 = load i32, i32* %3, align 4
  %60 = add nsw i32 %59, 1
  store i32 %60, i32* %3, align 4
  br label %8
}

declare dso_local i32 @__isoc99_scanf(i8*, ...) #1

declare dso_local i32 @printf(i8*, ...) #1


!llvm.module.flags = !{!0}
!llvm.ident = !{!1}

!0 = !{i32 1, !"wchar_size", i32 4}
!1 = !{!"clang version 10.0.0-4ubuntu1 "}
